
_mkdir:     file format elf32-i386


Disassembly of section .text:

00000000 <main>:
#include "stat.h"
#include "user.h"

int
main(int argc, char *argv[])
{
   0:	8d 4c 24 04          	lea    0x4(%esp),%ecx
   4:	83 e4 f0             	and    $0xfffffff0,%esp
   7:	ff 71 fc             	pushl  -0x4(%ecx)
   a:	55                   	push   %ebp
   b:	89 e5                	mov    %esp,%ebp
   d:	57                   	push   %edi
   e:	56                   	push   %esi
   f:	53                   	push   %ebx
  10:	51                   	push   %ecx
  11:	bf 01 00 00 00       	mov    $0x1,%edi
  16:	83 ec 08             	sub    $0x8,%esp
  19:	8b 31                	mov    (%ecx),%esi
  1b:	8b 59 04             	mov    0x4(%ecx),%ebx
  1e:	83 c3 04             	add    $0x4,%ebx
  int i;

  if(argc < 2){
  21:	83 fe 01             	cmp    $0x1,%esi
  24:	7e 3e                	jle    64 <main+0x64>
  26:	8d 76 00             	lea    0x0(%esi),%esi
  29:	8d bc 27 00 00 00 00 	lea    0x0(%edi,%eiz,1),%edi
    printf(2, "Usage: mkdir files...\n");
    exit();
  }

  for(i = 1; i < argc; i++){
    if(mkdir(argv[i]) < 0){
  30:	83 ec 0c             	sub    $0xc,%esp
  33:	ff 33                	pushl  (%ebx)
  35:	e8 00 03 00 00       	call   33a <mkdir>
  3a:	83 c4 10             	add    $0x10,%esp
  3d:	85 c0                	test   %eax,%eax
  3f:	78 0f                	js     50 <main+0x50>
  if(argc < 2){
    printf(2, "Usage: mkdir files...\n");
    exit();
  }

  for(i = 1; i < argc; i++){
  41:	83 c7 01             	add    $0x1,%edi
  44:	83 c3 04             	add    $0x4,%ebx
  47:	39 fe                	cmp    %edi,%esi
  49:	75 e5                	jne    30 <main+0x30>
      printf(2, "mkdir: %s failed to create\n", argv[i]);
      break;
    }
  }

  exit();
  4b:	e8 82 02 00 00       	call   2d2 <exit>
    exit();
  }

  for(i = 1; i < argc; i++){
    if(mkdir(argv[i]) < 0){
      printf(2, "mkdir: %s failed to create\n", argv[i]);
  50:	50                   	push   %eax
  51:	ff 33                	pushl  (%ebx)
  53:	68 47 08 00 00       	push   $0x847
  58:	6a 02                	push   $0x2
  5a:	e8 c1 03 00 00       	call   420 <printf>
      break;
  5f:	83 c4 10             	add    $0x10,%esp
  62:	eb e7                	jmp    4b <main+0x4b>
main(int argc, char *argv[])
{
  int i;

  if(argc < 2){
    printf(2, "Usage: mkdir files...\n");
  64:	52                   	push   %edx
  65:	52                   	push   %edx
  66:	68 30 08 00 00       	push   $0x830
  6b:	6a 02                	push   $0x2
  6d:	e8 ae 03 00 00       	call   420 <printf>
    exit();
  72:	e8 5b 02 00 00       	call   2d2 <exit>
  77:	66 90                	xchg   %ax,%ax
  79:	66 90                	xchg   %ax,%ax
  7b:	66 90                	xchg   %ax,%ax
  7d:	66 90                	xchg   %ax,%ax
  7f:	90                   	nop

00000080 <strcpy>:
  80:	55                   	push   %ebp
  81:	89 e5                	mov    %esp,%ebp
  83:	53                   	push   %ebx
  84:	8b 45 08             	mov    0x8(%ebp),%eax
  87:	8b 4d 0c             	mov    0xc(%ebp),%ecx
  8a:	89 c2                	mov    %eax,%edx
  8c:	8d 74 26 00          	lea    0x0(%esi,%eiz,1),%esi
  90:	83 c1 01             	add    $0x1,%ecx
  93:	0f b6 59 ff          	movzbl -0x1(%ecx),%ebx
  97:	83 c2 01             	add    $0x1,%edx
  9a:	84 db                	test   %bl,%bl
  9c:	88 5a ff             	mov    %bl,-0x1(%edx)
  9f:	75 ef                	jne    90 <strcpy+0x10>
  a1:	5b                   	pop    %ebx
  a2:	5d                   	pop    %ebp
  a3:	c3                   	ret    
  a4:	8d b6 00 00 00 00    	lea    0x0(%esi),%esi
  aa:	8d bf 00 00 00 00    	lea    0x0(%edi),%edi

000000b0 <strcmp>:
  b0:	55                   	push   %ebp
  b1:	89 e5                	mov    %esp,%ebp
  b3:	53                   	push   %ebx
  b4:	8b 55 08             	mov    0x8(%ebp),%edx
  b7:	8b 4d 0c             	mov    0xc(%ebp),%ecx
  ba:	0f b6 02             	movzbl (%edx),%eax
  bd:	0f b6 19             	movzbl (%ecx),%ebx
  c0:	84 c0                	test   %al,%al
  c2:	75 1c                	jne    e0 <strcmp+0x30>
  c4:	eb 2a                	jmp    f0 <strcmp+0x40>
  c6:	8d 76 00             	lea    0x0(%esi),%esi
  c9:	8d bc 27 00 00 00 00 	lea    0x0(%edi,%eiz,1),%edi
  d0:	83 c2 01             	add    $0x1,%edx
  d3:	0f b6 02             	movzbl (%edx),%eax
  d6:	83 c1 01             	add    $0x1,%ecx
  d9:	0f b6 19             	movzbl (%ecx),%ebx
  dc:	84 c0                	test   %al,%al
  de:	74 10                	je     f0 <strcmp+0x40>
  e0:	38 d8                	cmp    %bl,%al
  e2:	74 ec                	je     d0 <strcmp+0x20>
  e4:	29 d8                	sub    %ebx,%eax
  e6:	5b                   	pop    %ebx
  e7:	5d                   	pop    %ebp
  e8:	c3                   	ret    
  e9:	8d b4 26 00 00 00 00 	lea    0x0(%esi,%eiz,1),%esi
  f0:	31 c0                	xor    %eax,%eax
  f2:	29 d8                	sub    %ebx,%eax
  f4:	5b                   	pop    %ebx
  f5:	5d                   	pop    %ebp
  f6:	c3                   	ret    
  f7:	89 f6                	mov    %esi,%esi
  f9:	8d bc 27 00 00 00 00 	lea    0x0(%edi,%eiz,1),%edi

00000100 <strlen>:
 100:	55                   	push   %ebp
 101:	89 e5                	mov    %esp,%ebp
 103:	8b 4d 08             	mov    0x8(%ebp),%ecx
 106:	80 39 00             	cmpb   $0x0,(%ecx)
 109:	74 15                	je     120 <strlen+0x20>
 10b:	31 d2                	xor    %edx,%edx
 10d:	8d 76 00             	lea    0x0(%esi),%esi
 110:	83 c2 01             	add    $0x1,%edx
 113:	80 3c 11 00          	cmpb   $0x0,(%ecx,%edx,1)
 117:	89 d0                	mov    %edx,%eax
 119:	75 f5                	jne    110 <strlen+0x10>
 11b:	5d                   	pop    %ebp
 11c:	c3                   	ret    
 11d:	8d 76 00             	lea    0x0(%esi),%esi
 120:	31 c0                	xor    %eax,%eax
 122:	5d                   	pop    %ebp
 123:	c3                   	ret    
 124:	8d b6 00 00 00 00    	lea    0x0(%esi),%esi
 12a:	8d bf 00 00 00 00    	lea    0x0(%edi),%edi

00000130 <memset>:
 130:	55                   	push   %ebp
 131:	89 e5                	mov    %esp,%ebp
 133:	57                   	push   %edi
 134:	8b 55 08             	mov    0x8(%ebp),%edx
 137:	8b 4d 10             	mov    0x10(%ebp),%ecx
 13a:	8b 45 0c             	mov    0xc(%ebp),%eax
 13d:	89 d7                	mov    %edx,%edi
 13f:	fc                   	cld    
 140:	f3 aa                	rep stos %al,%es:(%edi)
 142:	89 d0                	mov    %edx,%eax
 144:	5f                   	pop    %edi
 145:	5d                   	pop    %ebp
 146:	c3                   	ret    
 147:	89 f6                	mov    %esi,%esi
 149:	8d bc 27 00 00 00 00 	lea    0x0(%edi,%eiz,1),%edi

00000150 <strchr>:
 150:	55                   	push   %ebp
 151:	89 e5                	mov    %esp,%ebp
 153:	53                   	push   %ebx
 154:	8b 45 08             	mov    0x8(%ebp),%eax
 157:	8b 5d 0c             	mov    0xc(%ebp),%ebx
 15a:	0f b6 10             	movzbl (%eax),%edx
 15d:	84 d2                	test   %dl,%dl
 15f:	74 1d                	je     17e <strchr+0x2e>
 161:	38 d3                	cmp    %dl,%bl
 163:	89 d9                	mov    %ebx,%ecx
 165:	75 0d                	jne    174 <strchr+0x24>
 167:	eb 17                	jmp    180 <strchr+0x30>
 169:	8d b4 26 00 00 00 00 	lea    0x0(%esi,%eiz,1),%esi
 170:	38 ca                	cmp    %cl,%dl
 172:	74 0c                	je     180 <strchr+0x30>
 174:	83 c0 01             	add    $0x1,%eax
 177:	0f b6 10             	movzbl (%eax),%edx
 17a:	84 d2                	test   %dl,%dl
 17c:	75 f2                	jne    170 <strchr+0x20>
 17e:	31 c0                	xor    %eax,%eax
 180:	5b                   	pop    %ebx
 181:	5d                   	pop    %ebp
 182:	c3                   	ret    
 183:	8d b6 00 00 00 00    	lea    0x0(%esi),%esi
 189:	8d bc 27 00 00 00 00 	lea    0x0(%edi,%eiz,1),%edi

00000190 <gets>:
 190:	55                   	push   %ebp
 191:	89 e5                	mov    %esp,%ebp
 193:	57                   	push   %edi
 194:	56                   	push   %esi
 195:	53                   	push   %ebx
 196:	31 f6                	xor    %esi,%esi
 198:	89 f3                	mov    %esi,%ebx
 19a:	83 ec 1c             	sub    $0x1c,%esp
 19d:	8b 7d 08             	mov    0x8(%ebp),%edi
 1a0:	eb 2f                	jmp    1d1 <gets+0x41>
 1a2:	8d b6 00 00 00 00    	lea    0x0(%esi),%esi
 1a8:	8d 45 e7             	lea    -0x19(%ebp),%eax
 1ab:	83 ec 04             	sub    $0x4,%esp
 1ae:	6a 01                	push   $0x1
 1b0:	50                   	push   %eax
 1b1:	6a 00                	push   $0x0
 1b3:	e8 32 01 00 00       	call   2ea <read>
 1b8:	83 c4 10             	add    $0x10,%esp
 1bb:	85 c0                	test   %eax,%eax
 1bd:	7e 1c                	jle    1db <gets+0x4b>
 1bf:	0f b6 45 e7          	movzbl -0x19(%ebp),%eax
 1c3:	83 c7 01             	add    $0x1,%edi
 1c6:	88 47 ff             	mov    %al,-0x1(%edi)
 1c9:	3c 0a                	cmp    $0xa,%al
 1cb:	74 23                	je     1f0 <gets+0x60>
 1cd:	3c 0d                	cmp    $0xd,%al
 1cf:	74 1f                	je     1f0 <gets+0x60>
 1d1:	83 c3 01             	add    $0x1,%ebx
 1d4:	3b 5d 0c             	cmp    0xc(%ebp),%ebx
 1d7:	89 fe                	mov    %edi,%esi
 1d9:	7c cd                	jl     1a8 <gets+0x18>
 1db:	89 f3                	mov    %esi,%ebx
 1dd:	8b 45 08             	mov    0x8(%ebp),%eax
 1e0:	c6 03 00             	movb   $0x0,(%ebx)
 1e3:	8d 65 f4             	lea    -0xc(%ebp),%esp
 1e6:	5b                   	pop    %ebx
 1e7:	5e                   	pop    %esi
 1e8:	5f                   	pop    %edi
 1e9:	5d                   	pop    %ebp
 1ea:	c3                   	ret    
 1eb:	90                   	nop
 1ec:	8d 74 26 00          	lea    0x0(%esi,%eiz,1),%esi
 1f0:	8b 75 08             	mov    0x8(%ebp),%esi
 1f3:	8b 45 08             	mov    0x8(%ebp),%eax
 1f6:	01 de                	add    %ebx,%esi
 1f8:	89 f3                	mov    %esi,%ebx
 1fa:	c6 03 00             	movb   $0x0,(%ebx)
 1fd:	8d 65 f4             	lea    -0xc(%ebp),%esp
 200:	5b                   	pop    %ebx
 201:	5e                   	pop    %esi
 202:	5f                   	pop    %edi
 203:	5d                   	pop    %ebp
 204:	c3                   	ret    
 205:	8d 74 26 00          	lea    0x0(%esi,%eiz,1),%esi
 209:	8d bc 27 00 00 00 00 	lea    0x0(%edi,%eiz,1),%edi

00000210 <stat>:
 210:	55                   	push   %ebp
 211:	89 e5                	mov    %esp,%ebp
 213:	56                   	push   %esi
 214:	53                   	push   %ebx
 215:	83 ec 08             	sub    $0x8,%esp
 218:	6a 00                	push   $0x0
 21a:	ff 75 08             	pushl  0x8(%ebp)
 21d:	e8 f0 00 00 00       	call   312 <open>
 222:	83 c4 10             	add    $0x10,%esp
 225:	85 c0                	test   %eax,%eax
 227:	78 27                	js     250 <stat+0x40>
 229:	83 ec 08             	sub    $0x8,%esp
 22c:	ff 75 0c             	pushl  0xc(%ebp)
 22f:	89 c3                	mov    %eax,%ebx
 231:	50                   	push   %eax
 232:	e8 f3 00 00 00       	call   32a <fstat>
 237:	89 1c 24             	mov    %ebx,(%esp)
 23a:	89 c6                	mov    %eax,%esi
 23c:	e8 b9 00 00 00       	call   2fa <close>
 241:	83 c4 10             	add    $0x10,%esp
 244:	8d 65 f8             	lea    -0x8(%ebp),%esp
 247:	89 f0                	mov    %esi,%eax
 249:	5b                   	pop    %ebx
 24a:	5e                   	pop    %esi
 24b:	5d                   	pop    %ebp
 24c:	c3                   	ret    
 24d:	8d 76 00             	lea    0x0(%esi),%esi
 250:	be ff ff ff ff       	mov    $0xffffffff,%esi
 255:	eb ed                	jmp    244 <stat+0x34>
 257:	89 f6                	mov    %esi,%esi
 259:	8d bc 27 00 00 00 00 	lea    0x0(%edi,%eiz,1),%edi

00000260 <atoi>:
 260:	55                   	push   %ebp
 261:	89 e5                	mov    %esp,%ebp
 263:	53                   	push   %ebx
 264:	8b 4d 08             	mov    0x8(%ebp),%ecx
 267:	0f be 11             	movsbl (%ecx),%edx
 26a:	8d 42 d0             	lea    -0x30(%edx),%eax
 26d:	3c 09                	cmp    $0x9,%al
 26f:	b8 00 00 00 00       	mov    $0x0,%eax
 274:	77 1f                	ja     295 <atoi+0x35>
 276:	8d 76 00             	lea    0x0(%esi),%esi
 279:	8d bc 27 00 00 00 00 	lea    0x0(%edi,%eiz,1),%edi
 280:	8d 04 80             	lea    (%eax,%eax,4),%eax
 283:	83 c1 01             	add    $0x1,%ecx
 286:	8d 44 42 d0          	lea    -0x30(%edx,%eax,2),%eax
 28a:	0f be 11             	movsbl (%ecx),%edx
 28d:	8d 5a d0             	lea    -0x30(%edx),%ebx
 290:	80 fb 09             	cmp    $0x9,%bl
 293:	76 eb                	jbe    280 <atoi+0x20>
 295:	5b                   	pop    %ebx
 296:	5d                   	pop    %ebp
 297:	c3                   	ret    
 298:	90                   	nop
 299:	8d b4 26 00 00 00 00 	lea    0x0(%esi,%eiz,1),%esi

000002a0 <memmove>:
 2a0:	55                   	push   %ebp
 2a1:	89 e5                	mov    %esp,%ebp
 2a3:	56                   	push   %esi
 2a4:	53                   	push   %ebx
 2a5:	8b 5d 10             	mov    0x10(%ebp),%ebx
 2a8:	8b 45 08             	mov    0x8(%ebp),%eax
 2ab:	8b 75 0c             	mov    0xc(%ebp),%esi
 2ae:	85 db                	test   %ebx,%ebx
 2b0:	7e 14                	jle    2c6 <memmove+0x26>
 2b2:	31 d2                	xor    %edx,%edx
 2b4:	8d 74 26 00          	lea    0x0(%esi,%eiz,1),%esi
 2b8:	0f b6 0c 16          	movzbl (%esi,%edx,1),%ecx
 2bc:	88 0c 10             	mov    %cl,(%eax,%edx,1)
 2bf:	83 c2 01             	add    $0x1,%edx
 2c2:	39 d3                	cmp    %edx,%ebx
 2c4:	75 f2                	jne    2b8 <memmove+0x18>
 2c6:	5b                   	pop    %ebx
 2c7:	5e                   	pop    %esi
 2c8:	5d                   	pop    %ebp
 2c9:	c3                   	ret    

000002ca <fork>:
 2ca:	b8 01 00 00 00       	mov    $0x1,%eax
 2cf:	cd 40                	int    $0x40
 2d1:	c3                   	ret    

000002d2 <exit>:
 2d2:	b8 02 00 00 00       	mov    $0x2,%eax
 2d7:	cd 40                	int    $0x40
 2d9:	c3                   	ret    

000002da <wait>:
 2da:	b8 03 00 00 00       	mov    $0x3,%eax
 2df:	cd 40                	int    $0x40
 2e1:	c3                   	ret    

000002e2 <pipe>:
 2e2:	b8 04 00 00 00       	mov    $0x4,%eax
 2e7:	cd 40                	int    $0x40
 2e9:	c3                   	ret    

000002ea <read>:
 2ea:	b8 05 00 00 00       	mov    $0x5,%eax
 2ef:	cd 40                	int    $0x40
 2f1:	c3                   	ret    

000002f2 <write>:
 2f2:	b8 10 00 00 00       	mov    $0x10,%eax
 2f7:	cd 40                	int    $0x40
 2f9:	c3                   	ret    

000002fa <close>:
 2fa:	b8 15 00 00 00       	mov    $0x15,%eax
 2ff:	cd 40                	int    $0x40
 301:	c3                   	ret    

00000302 <kill>:
 302:	b8 06 00 00 00       	mov    $0x6,%eax
 307:	cd 40                	int    $0x40
 309:	c3                   	ret    

0000030a <exec>:
 30a:	b8 07 00 00 00       	mov    $0x7,%eax
 30f:	cd 40                	int    $0x40
 311:	c3                   	ret    

00000312 <open>:
 312:	b8 0f 00 00 00       	mov    $0xf,%eax
 317:	cd 40                	int    $0x40
 319:	c3                   	ret    

0000031a <mknod>:
 31a:	b8 11 00 00 00       	mov    $0x11,%eax
 31f:	cd 40                	int    $0x40
 321:	c3                   	ret    

00000322 <unlink>:
 322:	b8 12 00 00 00       	mov    $0x12,%eax
 327:	cd 40                	int    $0x40
 329:	c3                   	ret    

0000032a <fstat>:
 32a:	b8 08 00 00 00       	mov    $0x8,%eax
 32f:	cd 40                	int    $0x40
 331:	c3                   	ret    

00000332 <link>:
 332:	b8 13 00 00 00       	mov    $0x13,%eax
 337:	cd 40                	int    $0x40
 339:	c3                   	ret    

0000033a <mkdir>:
 33a:	b8 14 00 00 00       	mov    $0x14,%eax
 33f:	cd 40                	int    $0x40
 341:	c3                   	ret    

00000342 <chdir>:
 342:	b8 09 00 00 00       	mov    $0x9,%eax
 347:	cd 40                	int    $0x40
 349:	c3                   	ret    

0000034a <dup>:
 34a:	b8 0a 00 00 00       	mov    $0xa,%eax
 34f:	cd 40                	int    $0x40
 351:	c3                   	ret    

00000352 <getpid>:
 352:	b8 0b 00 00 00       	mov    $0xb,%eax
 357:	cd 40                	int    $0x40
 359:	c3                   	ret    

0000035a <sbrk>:
 35a:	b8 0c 00 00 00       	mov    $0xc,%eax
 35f:	cd 40                	int    $0x40
 361:	c3                   	ret    

00000362 <sleep>:
 362:	b8 0d 00 00 00       	mov    $0xd,%eax
 367:	cd 40                	int    $0x40
 369:	c3                   	ret    

0000036a <uptime>:
 36a:	b8 0e 00 00 00       	mov    $0xe,%eax
 36f:	cd 40                	int    $0x40
 371:	c3                   	ret    
 372:	66 90                	xchg   %ax,%ax
 374:	66 90                	xchg   %ax,%ax
 376:	66 90                	xchg   %ax,%ax
 378:	66 90                	xchg   %ax,%ax
 37a:	66 90                	xchg   %ax,%ax
 37c:	66 90                	xchg   %ax,%ax
 37e:	66 90                	xchg   %ax,%ax

00000380 <printint>:
  write(fd, &c, 1);
}

static void
printint(int fd, int xx, int base, int sgn)
{
 380:	55                   	push   %ebp
 381:	89 e5                	mov    %esp,%ebp
 383:	57                   	push   %edi
 384:	56                   	push   %esi
 385:	53                   	push   %ebx
 386:	89 c6                	mov    %eax,%esi
 388:	83 ec 3c             	sub    $0x3c,%esp
  char buf[16];
  int i, neg;
  uint x;

  neg = 0;
  if(sgn && xx < 0){
 38b:	8b 5d 08             	mov    0x8(%ebp),%ebx
 38e:	85 db                	test   %ebx,%ebx
 390:	74 7e                	je     410 <printint+0x90>
 392:	89 d0                	mov    %edx,%eax
 394:	c1 e8 1f             	shr    $0x1f,%eax
 397:	84 c0                	test   %al,%al
 399:	74 75                	je     410 <printint+0x90>
    neg = 1;
    x = -xx;
 39b:	89 d0                	mov    %edx,%eax
  int i, neg;
  uint x;

  neg = 0;
  if(sgn && xx < 0){
    neg = 1;
 39d:	c7 45 c4 01 00 00 00 	movl   $0x1,-0x3c(%ebp)
    x = -xx;
 3a4:	f7 d8                	neg    %eax
 3a6:	89 75 c0             	mov    %esi,-0x40(%ebp)
  } else {
    x = xx;
  }

  i = 0;
 3a9:	31 ff                	xor    %edi,%edi
 3ab:	8d 5d d7             	lea    -0x29(%ebp),%ebx
 3ae:	89 ce                	mov    %ecx,%esi
 3b0:	eb 08                	jmp    3ba <printint+0x3a>
 3b2:	8d b6 00 00 00 00    	lea    0x0(%esi),%esi
  do{
    buf[i++] = digits[x % base];
 3b8:	89 cf                	mov    %ecx,%edi
 3ba:	31 d2                	xor    %edx,%edx
 3bc:	8d 4f 01             	lea    0x1(%edi),%ecx
 3bf:	f7 f6                	div    %esi
 3c1:	0f b6 92 6c 08 00 00 	movzbl 0x86c(%edx),%edx
  }while((x /= base) != 0);
 3c8:	85 c0                	test   %eax,%eax
    x = xx;
  }

  i = 0;
  do{
    buf[i++] = digits[x % base];
 3ca:	88 14 0b             	mov    %dl,(%ebx,%ecx,1)
  }while((x /= base) != 0);
 3cd:	75 e9                	jne    3b8 <printint+0x38>
  if(neg)
 3cf:	8b 45 c4             	mov    -0x3c(%ebp),%eax
 3d2:	8b 75 c0             	mov    -0x40(%ebp),%esi
 3d5:	85 c0                	test   %eax,%eax
 3d7:	74 08                	je     3e1 <printint+0x61>
    buf[i++] = '-';
 3d9:	c6 44 0d d8 2d       	movb   $0x2d,-0x28(%ebp,%ecx,1)
 3de:	8d 4f 02             	lea    0x2(%edi),%ecx
 3e1:	8d 7c 0d d7          	lea    -0x29(%ebp,%ecx,1),%edi
 3e5:	8d 76 00             	lea    0x0(%esi),%esi
 3e8:	0f b6 07             	movzbl (%edi),%eax
#include "user.h"

static void
putc(int fd, char c)
{
  write(fd, &c, 1);
 3eb:	83 ec 04             	sub    $0x4,%esp
 3ee:	83 ef 01             	sub    $0x1,%edi
 3f1:	6a 01                	push   $0x1
 3f3:	53                   	push   %ebx
 3f4:	56                   	push   %esi
 3f5:	88 45 d7             	mov    %al,-0x29(%ebp)
 3f8:	e8 f5 fe ff ff       	call   2f2 <write>
    buf[i++] = digits[x % base];
  }while((x /= base) != 0);
  if(neg)
    buf[i++] = '-';

  while(--i >= 0)
 3fd:	83 c4 10             	add    $0x10,%esp
 400:	39 df                	cmp    %ebx,%edi
 402:	75 e4                	jne    3e8 <printint+0x68>
    putc(fd, buf[i]);
}
 404:	8d 65 f4             	lea    -0xc(%ebp),%esp
 407:	5b                   	pop    %ebx
 408:	5e                   	pop    %esi
 409:	5f                   	pop    %edi
 40a:	5d                   	pop    %ebp
 40b:	c3                   	ret    
 40c:	8d 74 26 00          	lea    0x0(%esi,%eiz,1),%esi
  neg = 0;
  if(sgn && xx < 0){
    neg = 1;
    x = -xx;
  } else {
    x = xx;
 410:	89 d0                	mov    %edx,%eax
  static char digits[] = "0123456789ABCDEF";
  char buf[16];
  int i, neg;
  uint x;

  neg = 0;
 412:	c7 45 c4 00 00 00 00 	movl   $0x0,-0x3c(%ebp)
 419:	eb 8b                	jmp    3a6 <printint+0x26>
 41b:	90                   	nop
 41c:	8d 74 26 00          	lea    0x0(%esi,%eiz,1),%esi

00000420 <printf>:
}

// Print to the given fd. Only understands %d, %x, %p, %s.
void
printf(int fd, char *fmt, ...)
{
 420:	55                   	push   %ebp
 421:	89 e5                	mov    %esp,%ebp
 423:	57                   	push   %edi
 424:	56                   	push   %esi
 425:	53                   	push   %ebx
  int c, i, state;
  uint *ap;

  state = 0;
  ap = (uint*)(void*)&fmt + 1;
  for(i = 0; fmt[i]; i++){
 426:	8d 45 10             	lea    0x10(%ebp),%eax
}

// Print to the given fd. Only understands %d, %x, %p, %s.
void
printf(int fd, char *fmt, ...)
{
 429:	83 ec 2c             	sub    $0x2c,%esp
  int c, i, state;
  uint *ap;

  state = 0;
  ap = (uint*)(void*)&fmt + 1;
  for(i = 0; fmt[i]; i++){
 42c:	8b 75 0c             	mov    0xc(%ebp),%esi
}

// Print to the given fd. Only understands %d, %x, %p, %s.
void
printf(int fd, char *fmt, ...)
{
 42f:	8b 7d 08             	mov    0x8(%ebp),%edi
  int c, i, state;
  uint *ap;

  state = 0;
  ap = (uint*)(void*)&fmt + 1;
  for(i = 0; fmt[i]; i++){
 432:	89 45 d0             	mov    %eax,-0x30(%ebp)
 435:	0f b6 1e             	movzbl (%esi),%ebx
 438:	83 c6 01             	add    $0x1,%esi
 43b:	84 db                	test   %bl,%bl
 43d:	0f 84 b0 00 00 00    	je     4f3 <printf+0xd3>
 443:	31 d2                	xor    %edx,%edx
 445:	eb 39                	jmp    480 <printf+0x60>
 447:	89 f6                	mov    %esi,%esi
 449:	8d bc 27 00 00 00 00 	lea    0x0(%edi,%eiz,1),%edi
    c = fmt[i] & 0xff;
    if(state == 0){
      if(c == '%'){
 450:	83 f8 25             	cmp    $0x25,%eax
 453:	89 55 d4             	mov    %edx,-0x2c(%ebp)
        state = '%';
 456:	ba 25 00 00 00       	mov    $0x25,%edx
  state = 0;
  ap = (uint*)(void*)&fmt + 1;
  for(i = 0; fmt[i]; i++){
    c = fmt[i] & 0xff;
    if(state == 0){
      if(c == '%'){
 45b:	74 18                	je     475 <printf+0x55>
#include "user.h"

static void
putc(int fd, char c)
{
  write(fd, &c, 1);
 45d:	8d 45 e2             	lea    -0x1e(%ebp),%eax
 460:	83 ec 04             	sub    $0x4,%esp
 463:	88 5d e2             	mov    %bl,-0x1e(%ebp)
 466:	6a 01                	push   $0x1
 468:	50                   	push   %eax
 469:	57                   	push   %edi
 46a:	e8 83 fe ff ff       	call   2f2 <write>
 46f:	8b 55 d4             	mov    -0x2c(%ebp),%edx
 472:	83 c4 10             	add    $0x10,%esp
 475:	83 c6 01             	add    $0x1,%esi
  int c, i, state;
  uint *ap;

  state = 0;
  ap = (uint*)(void*)&fmt + 1;
  for(i = 0; fmt[i]; i++){
 478:	0f b6 5e ff          	movzbl -0x1(%esi),%ebx
 47c:	84 db                	test   %bl,%bl
 47e:	74 73                	je     4f3 <printf+0xd3>
    c = fmt[i] & 0xff;
    if(state == 0){
 480:	85 d2                	test   %edx,%edx
  uint *ap;

  state = 0;
  ap = (uint*)(void*)&fmt + 1;
  for(i = 0; fmt[i]; i++){
    c = fmt[i] & 0xff;
 482:	0f be cb             	movsbl %bl,%ecx
 485:	0f b6 c3             	movzbl %bl,%eax
    if(state == 0){
 488:	74 c6                	je     450 <printf+0x30>
      if(c == '%'){
        state = '%';
      } else {
        putc(fd, c);
      }
    } else if(state == '%'){
 48a:	83 fa 25             	cmp    $0x25,%edx
 48d:	75 e6                	jne    475 <printf+0x55>
      if(c == 'd'){
 48f:	83 f8 64             	cmp    $0x64,%eax
 492:	0f 84 f8 00 00 00    	je     590 <printf+0x170>
        printint(fd, *ap, 10, 1);
        ap++;
      } else if(c == 'x' || c == 'p'){
 498:	81 e1 f7 00 00 00    	and    $0xf7,%ecx
 49e:	83 f9 70             	cmp    $0x70,%ecx
 4a1:	74 5d                	je     500 <printf+0xe0>
        printint(fd, *ap, 16, 0);
        ap++;
      } else if(c == 's'){
 4a3:	83 f8 73             	cmp    $0x73,%eax
 4a6:	0f 84 84 00 00 00    	je     530 <printf+0x110>
          s = "(null)";
        while(*s != 0){
          putc(fd, *s);
          s++;
        }
      } else if(c == 'c'){
 4ac:	83 f8 63             	cmp    $0x63,%eax
 4af:	0f 84 ea 00 00 00    	je     59f <printf+0x17f>
        putc(fd, *ap);
        ap++;
      } else if(c == '%'){
 4b5:	83 f8 25             	cmp    $0x25,%eax
 4b8:	0f 84 c2 00 00 00    	je     580 <printf+0x160>
#include "user.h"

static void
putc(int fd, char c)
{
  write(fd, &c, 1);
 4be:	8d 45 e7             	lea    -0x19(%ebp),%eax
 4c1:	83 ec 04             	sub    $0x4,%esp
 4c4:	c6 45 e7 25          	movb   $0x25,-0x19(%ebp)
 4c8:	6a 01                	push   $0x1
 4ca:	50                   	push   %eax
 4cb:	57                   	push   %edi
 4cc:	e8 21 fe ff ff       	call   2f2 <write>
 4d1:	83 c4 0c             	add    $0xc,%esp
 4d4:	8d 45 e6             	lea    -0x1a(%ebp),%eax
 4d7:	88 5d e6             	mov    %bl,-0x1a(%ebp)
 4da:	6a 01                	push   $0x1
 4dc:	50                   	push   %eax
 4dd:	57                   	push   %edi
 4de:	83 c6 01             	add    $0x1,%esi
 4e1:	e8 0c fe ff ff       	call   2f2 <write>
  int c, i, state;
  uint *ap;

  state = 0;
  ap = (uint*)(void*)&fmt + 1;
  for(i = 0; fmt[i]; i++){
 4e6:	0f b6 5e ff          	movzbl -0x1(%esi),%ebx
#include "user.h"

static void
putc(int fd, char c)
{
  write(fd, &c, 1);
 4ea:	83 c4 10             	add    $0x10,%esp
      } else {
        // Unknown % sequence.  Print it to draw attention.
        putc(fd, '%');
        putc(fd, c);
      }
      state = 0;
 4ed:	31 d2                	xor    %edx,%edx
  int c, i, state;
  uint *ap;

  state = 0;
  ap = (uint*)(void*)&fmt + 1;
  for(i = 0; fmt[i]; i++){
 4ef:	84 db                	test   %bl,%bl
 4f1:	75 8d                	jne    480 <printf+0x60>
        putc(fd, c);
      }
      state = 0;
    }
  }
}
 4f3:	8d 65 f4             	lea    -0xc(%ebp),%esp
 4f6:	5b                   	pop    %ebx
 4f7:	5e                   	pop    %esi
 4f8:	5f                   	pop    %edi
 4f9:	5d                   	pop    %ebp
 4fa:	c3                   	ret    
 4fb:	90                   	nop
 4fc:	8d 74 26 00          	lea    0x0(%esi,%eiz,1),%esi
    } else if(state == '%'){
      if(c == 'd'){
        printint(fd, *ap, 10, 1);
        ap++;
      } else if(c == 'x' || c == 'p'){
        printint(fd, *ap, 16, 0);
 500:	83 ec 0c             	sub    $0xc,%esp
 503:	b9 10 00 00 00       	mov    $0x10,%ecx
 508:	6a 00                	push   $0x0
 50a:	8b 5d d0             	mov    -0x30(%ebp),%ebx
 50d:	89 f8                	mov    %edi,%eax
 50f:	8b 13                	mov    (%ebx),%edx
 511:	e8 6a fe ff ff       	call   380 <printint>
        ap++;
 516:	89 d8                	mov    %ebx,%eax
 518:	83 c4 10             	add    $0x10,%esp
      } else {
        // Unknown % sequence.  Print it to draw attention.
        putc(fd, '%');
        putc(fd, c);
      }
      state = 0;
 51b:	31 d2                	xor    %edx,%edx
      if(c == 'd'){
        printint(fd, *ap, 10, 1);
        ap++;
      } else if(c == 'x' || c == 'p'){
        printint(fd, *ap, 16, 0);
        ap++;
 51d:	83 c0 04             	add    $0x4,%eax
 520:	89 45 d0             	mov    %eax,-0x30(%ebp)
 523:	e9 4d ff ff ff       	jmp    475 <printf+0x55>
 528:	90                   	nop
 529:	8d b4 26 00 00 00 00 	lea    0x0(%esi,%eiz,1),%esi
      } else if(c == 's'){
        s = (char*)*ap;
 530:	8b 45 d0             	mov    -0x30(%ebp),%eax
 533:	8b 18                	mov    (%eax),%ebx
        ap++;
 535:	83 c0 04             	add    $0x4,%eax
 538:	89 45 d0             	mov    %eax,-0x30(%ebp)
        if(s == 0)
          s = "(null)";
 53b:	b8 63 08 00 00       	mov    $0x863,%eax
 540:	85 db                	test   %ebx,%ebx
 542:	0f 44 d8             	cmove  %eax,%ebx
        while(*s != 0){
 545:	0f b6 03             	movzbl (%ebx),%eax
 548:	84 c0                	test   %al,%al
 54a:	74 23                	je     56f <printf+0x14f>
 54c:	8d 74 26 00          	lea    0x0(%esi,%eiz,1),%esi
 550:	88 45 e3             	mov    %al,-0x1d(%ebp)
#include "user.h"

static void
putc(int fd, char c)
{
  write(fd, &c, 1);
 553:	8d 45 e3             	lea    -0x1d(%ebp),%eax
 556:	83 ec 04             	sub    $0x4,%esp
 559:	6a 01                	push   $0x1
        ap++;
        if(s == 0)
          s = "(null)";
        while(*s != 0){
          putc(fd, *s);
          s++;
 55b:	83 c3 01             	add    $0x1,%ebx
#include "user.h"

static void
putc(int fd, char c)
{
  write(fd, &c, 1);
 55e:	50                   	push   %eax
 55f:	57                   	push   %edi
 560:	e8 8d fd ff ff       	call   2f2 <write>
      } else if(c == 's'){
        s = (char*)*ap;
        ap++;
        if(s == 0)
          s = "(null)";
        while(*s != 0){
 565:	0f b6 03             	movzbl (%ebx),%eax
 568:	83 c4 10             	add    $0x10,%esp
 56b:	84 c0                	test   %al,%al
 56d:	75 e1                	jne    550 <printf+0x130>
      } else {
        // Unknown % sequence.  Print it to draw attention.
        putc(fd, '%');
        putc(fd, c);
      }
      state = 0;
 56f:	31 d2                	xor    %edx,%edx
 571:	e9 ff fe ff ff       	jmp    475 <printf+0x55>
 576:	8d 76 00             	lea    0x0(%esi),%esi
 579:	8d bc 27 00 00 00 00 	lea    0x0(%edi,%eiz,1),%edi
#include "user.h"

static void
putc(int fd, char c)
{
  write(fd, &c, 1);
 580:	83 ec 04             	sub    $0x4,%esp
 583:	88 5d e5             	mov    %bl,-0x1b(%ebp)
 586:	8d 45 e5             	lea    -0x1b(%ebp),%eax
 589:	6a 01                	push   $0x1
 58b:	e9 4c ff ff ff       	jmp    4dc <printf+0xbc>
      } else {
        putc(fd, c);
      }
    } else if(state == '%'){
      if(c == 'd'){
        printint(fd, *ap, 10, 1);
 590:	83 ec 0c             	sub    $0xc,%esp
 593:	b9 0a 00 00 00       	mov    $0xa,%ecx
 598:	6a 01                	push   $0x1
 59a:	e9 6b ff ff ff       	jmp    50a <printf+0xea>
 59f:	8b 5d d0             	mov    -0x30(%ebp),%ebx
#include "user.h"

static void
putc(int fd, char c)
{
  write(fd, &c, 1);
 5a2:	83 ec 04             	sub    $0x4,%esp
 5a5:	8b 03                	mov    (%ebx),%eax
 5a7:	6a 01                	push   $0x1
 5a9:	88 45 e4             	mov    %al,-0x1c(%ebp)
 5ac:	8d 45 e4             	lea    -0x1c(%ebp),%eax
 5af:	50                   	push   %eax
 5b0:	57                   	push   %edi
 5b1:	e8 3c fd ff ff       	call   2f2 <write>
 5b6:	e9 5b ff ff ff       	jmp    516 <printf+0xf6>
 5bb:	66 90                	xchg   %ax,%ax
 5bd:	66 90                	xchg   %ax,%ax
 5bf:	90                   	nop

000005c0 <free>:
static Header base;
static Header *freep;

void
free(void *ap)
{
 5c0:	55                   	push   %ebp
  Header *bp, *p;

  bp = (Header*)ap - 1;
  for(p = freep; !(bp > p && bp < p->s.ptr); p = p->s.ptr)
 5c1:	a1 a8 0b 00 00       	mov    0xba8,%eax
static Header base;
static Header *freep;

void
free(void *ap)
{
 5c6:	89 e5                	mov    %esp,%ebp
 5c8:	57                   	push   %edi
 5c9:	56                   	push   %esi
 5ca:	53                   	push   %ebx
 5cb:	8b 5d 08             	mov    0x8(%ebp),%ebx
  Header *bp, *p;

  bp = (Header*)ap - 1;
  for(p = freep; !(bp > p && bp < p->s.ptr); p = p->s.ptr)
    if(p >= p->s.ptr && (bp > p || bp < p->s.ptr))
 5ce:	8b 10                	mov    (%eax),%edx
void
free(void *ap)
{
  Header *bp, *p;

  bp = (Header*)ap - 1;
 5d0:	8d 4b f8             	lea    -0x8(%ebx),%ecx
  for(p = freep; !(bp > p && bp < p->s.ptr); p = p->s.ptr)
 5d3:	39 c8                	cmp    %ecx,%eax
 5d5:	73 19                	jae    5f0 <free+0x30>
 5d7:	89 f6                	mov    %esi,%esi
 5d9:	8d bc 27 00 00 00 00 	lea    0x0(%edi,%eiz,1),%edi
 5e0:	39 d1                	cmp    %edx,%ecx
 5e2:	72 1c                	jb     600 <free+0x40>
    if(p >= p->s.ptr && (bp > p || bp < p->s.ptr))
 5e4:	39 d0                	cmp    %edx,%eax
 5e6:	73 18                	jae    600 <free+0x40>
static Header base;
static Header *freep;

void
free(void *ap)
{
 5e8:	89 d0                	mov    %edx,%eax
  Header *bp, *p;

  bp = (Header*)ap - 1;
  for(p = freep; !(bp > p && bp < p->s.ptr); p = p->s.ptr)
 5ea:	39 c8                	cmp    %ecx,%eax
    if(p >= p->s.ptr && (bp > p || bp < p->s.ptr))
 5ec:	8b 10                	mov    (%eax),%edx
free(void *ap)
{
  Header *bp, *p;

  bp = (Header*)ap - 1;
  for(p = freep; !(bp > p && bp < p->s.ptr); p = p->s.ptr)
 5ee:	72 f0                	jb     5e0 <free+0x20>
    if(p >= p->s.ptr && (bp > p || bp < p->s.ptr))
 5f0:	39 d0                	cmp    %edx,%eax
 5f2:	72 f4                	jb     5e8 <free+0x28>
 5f4:	39 d1                	cmp    %edx,%ecx
 5f6:	73 f0                	jae    5e8 <free+0x28>
 5f8:	90                   	nop
 5f9:	8d b4 26 00 00 00 00 	lea    0x0(%esi,%eiz,1),%esi
      break;
  if(bp + bp->s.size == p->s.ptr){
 600:	8b 73 fc             	mov    -0x4(%ebx),%esi
 603:	8d 3c f1             	lea    (%ecx,%esi,8),%edi
 606:	39 d7                	cmp    %edx,%edi
 608:	74 19                	je     623 <free+0x63>
    bp->s.size += p->s.ptr->s.size;
    bp->s.ptr = p->s.ptr->s.ptr;
  } else
    bp->s.ptr = p->s.ptr;
 60a:	89 53 f8             	mov    %edx,-0x8(%ebx)
  if(p + p->s.size == bp){
 60d:	8b 50 04             	mov    0x4(%eax),%edx
 610:	8d 34 d0             	lea    (%eax,%edx,8),%esi
 613:	39 f1                	cmp    %esi,%ecx
 615:	74 23                	je     63a <free+0x7a>
    p->s.size += bp->s.size;
    p->s.ptr = bp->s.ptr;
  } else
    p->s.ptr = bp;
 617:	89 08                	mov    %ecx,(%eax)
  freep = p;
 619:	a3 a8 0b 00 00       	mov    %eax,0xba8
}
 61e:	5b                   	pop    %ebx
 61f:	5e                   	pop    %esi
 620:	5f                   	pop    %edi
 621:	5d                   	pop    %ebp
 622:	c3                   	ret    
  bp = (Header*)ap - 1;
  for(p = freep; !(bp > p && bp < p->s.ptr); p = p->s.ptr)
    if(p >= p->s.ptr && (bp > p || bp < p->s.ptr))
      break;
  if(bp + bp->s.size == p->s.ptr){
    bp->s.size += p->s.ptr->s.size;
 623:	03 72 04             	add    0x4(%edx),%esi
 626:	89 73 fc             	mov    %esi,-0x4(%ebx)
    bp->s.ptr = p->s.ptr->s.ptr;
 629:	8b 10                	mov    (%eax),%edx
 62b:	8b 12                	mov    (%edx),%edx
 62d:	89 53 f8             	mov    %edx,-0x8(%ebx)
  } else
    bp->s.ptr = p->s.ptr;
  if(p + p->s.size == bp){
 630:	8b 50 04             	mov    0x4(%eax),%edx
 633:	8d 34 d0             	lea    (%eax,%edx,8),%esi
 636:	39 f1                	cmp    %esi,%ecx
 638:	75 dd                	jne    617 <free+0x57>
    p->s.size += bp->s.size;
 63a:	03 53 fc             	add    -0x4(%ebx),%edx
    p->s.ptr = bp->s.ptr;
  } else
    p->s.ptr = bp;
  freep = p;
 63d:	a3 a8 0b 00 00       	mov    %eax,0xba8
    bp->s.size += p->s.ptr->s.size;
    bp->s.ptr = p->s.ptr->s.ptr;
  } else
    bp->s.ptr = p->s.ptr;
  if(p + p->s.size == bp){
    p->s.size += bp->s.size;
 642:	89 50 04             	mov    %edx,0x4(%eax)
    p->s.ptr = bp->s.ptr;
 645:	8b 53 f8             	mov    -0x8(%ebx),%edx
 648:	89 10                	mov    %edx,(%eax)
  } else
    p->s.ptr = bp;
  freep = p;
}
 64a:	5b                   	pop    %ebx
 64b:	5e                   	pop    %esi
 64c:	5f                   	pop    %edi
 64d:	5d                   	pop    %ebp
 64e:	c3                   	ret    
 64f:	90                   	nop

00000650 <morecore>:

static Header*
morecore(uint nu)
{
 650:	55                   	push   %ebp
 651:	89 e5                	mov    %esp,%ebp
 653:	53                   	push   %ebx
 654:	83 ec 04             	sub    $0x4,%esp
  char *p;
  Header *hp;

  if(nu < 4096)
 657:	3d ff 0f 00 00       	cmp    $0xfff,%eax
 65c:	76 3a                	jbe    698 <morecore+0x48>
 65e:	89 c3                	mov    %eax,%ebx
 660:	8d 04 c5 00 00 00 00 	lea    0x0(,%eax,8),%eax
    nu = 4096;
  p = sbrk(nu * sizeof(Header));
 667:	83 ec 0c             	sub    $0xc,%esp
 66a:	50                   	push   %eax
 66b:	e8 ea fc ff ff       	call   35a <sbrk>
  if(p == (char*)-1)
 670:	83 c4 10             	add    $0x10,%esp
 673:	83 f8 ff             	cmp    $0xffffffff,%eax
 676:	74 30                	je     6a8 <morecore+0x58>
    return 0;
  hp = (Header*)p;
  hp->s.size = nu;
 678:	89 58 04             	mov    %ebx,0x4(%eax)
  free((void*)(hp + 1));
 67b:	83 ec 0c             	sub    $0xc,%esp
 67e:	83 c0 08             	add    $0x8,%eax
 681:	50                   	push   %eax
 682:	e8 39 ff ff ff       	call   5c0 <free>
  return freep;
 687:	a1 a8 0b 00 00       	mov    0xba8,%eax
 68c:	83 c4 10             	add    $0x10,%esp
}
 68f:	8b 5d fc             	mov    -0x4(%ebp),%ebx
 692:	c9                   	leave  
 693:	c3                   	ret    
 694:	8d 74 26 00          	lea    0x0(%esi,%eiz,1),%esi
 698:	b8 00 80 00 00       	mov    $0x8000,%eax
{
  char *p;
  Header *hp;

  if(nu < 4096)
    nu = 4096;
 69d:	bb 00 10 00 00       	mov    $0x1000,%ebx
 6a2:	eb c3                	jmp    667 <morecore+0x17>
 6a4:	8d 74 26 00          	lea    0x0(%esi,%eiz,1),%esi
  p = sbrk(nu * sizeof(Header));
  if(p == (char*)-1)
    return 0;
 6a8:	31 c0                	xor    %eax,%eax
 6aa:	eb e3                	jmp    68f <morecore+0x3f>
 6ac:	8d 74 26 00          	lea    0x0(%esi,%eiz,1),%esi

000006b0 <malloc>:
  return freep;
}

void*
malloc(uint nbytes)
{
 6b0:	55                   	push   %ebp
 6b1:	89 e5                	mov    %esp,%ebp
 6b3:	53                   	push   %ebx
 6b4:	83 ec 04             	sub    $0x4,%esp
    Header *p, *prevp;
    uint nunits;

    nunits = (nbytes + sizeof(Header) - 1)/sizeof(Header) + 1;
 6b7:	8b 45 08             	mov    0x8(%ebp),%eax
 6ba:	8d 58 07             	lea    0x7(%eax),%ebx
    if((prevp = freep) == 0){
 6bd:	a1 a8 0b 00 00       	mov    0xba8,%eax
malloc(uint nbytes)
{
    Header *p, *prevp;
    uint nunits;

    nunits = (nbytes + sizeof(Header) - 1)/sizeof(Header) + 1;
 6c2:	c1 eb 03             	shr    $0x3,%ebx
 6c5:	83 c3 01             	add    $0x1,%ebx
    if((prevp = freep) == 0){
 6c8:	85 c0                	test   %eax,%eax
 6ca:	74 52                	je     71e <malloc+0x6e>
 6cc:	8d 74 26 00          	lea    0x0(%esi,%eiz,1),%esi
        base.s.ptr = freep = prevp = &base;
        base.s.size = 0;
    }
    for(p = prevp->s.ptr; ; prevp = p, p = p->s.ptr){
 6d0:	8b 10                	mov    (%eax),%edx
        if(p->s.size >= nunits){
 6d2:	8b 4a 04             	mov    0x4(%edx),%ecx
 6d5:	39 cb                	cmp    %ecx,%ebx
 6d7:	76 1f                	jbe    6f8 <malloc+0x48>
                p->s.size = nunits;
            }
            freep = prevp;
            return (void*)(p + 1);
        }
        if(p == freep)
 6d9:	39 15 a8 0b 00 00    	cmp    %edx,0xba8
 6df:	89 d0                	mov    %edx,%eax
 6e1:	75 ed                	jne    6d0 <malloc+0x20>
            if((p = morecore(nunits)) == 0)
 6e3:	89 d8                	mov    %ebx,%eax
 6e5:	e8 66 ff ff ff       	call   650 <morecore>
 6ea:	85 c0                	test   %eax,%eax
 6ec:	75 e2                	jne    6d0 <malloc+0x20>
                return 0;
 6ee:	31 c0                	xor    %eax,%eax
 6f0:	eb 1d                	jmp    70f <malloc+0x5f>
 6f2:	8d b6 00 00 00 00    	lea    0x0(%esi),%esi
        base.s.ptr = freep = prevp = &base;
        base.s.size = 0;
    }
    for(p = prevp->s.ptr; ; prevp = p, p = p->s.ptr){
        if(p->s.size >= nunits){
            if(p->s.size == nunits)
 6f8:	39 cb                	cmp    %ecx,%ebx
 6fa:	74 1c                	je     718 <malloc+0x68>
                prevp->s.ptr = p->s.ptr;
            else {
                p->s.size -= nunits;
 6fc:	29 d9                	sub    %ebx,%ecx
 6fe:	89 4a 04             	mov    %ecx,0x4(%edx)
                p += p->s.size;
 701:	8d 14 ca             	lea    (%edx,%ecx,8),%edx
                p->s.size = nunits;
 704:	89 5a 04             	mov    %ebx,0x4(%edx)
            }
            freep = prevp;
 707:	a3 a8 0b 00 00       	mov    %eax,0xba8
            return (void*)(p + 1);
 70c:	8d 42 08             	lea    0x8(%edx),%eax
        }
        if(p == freep)
            if((p = morecore(nunits)) == 0)
                return 0;
    }
}
 70f:	83 c4 04             	add    $0x4,%esp
 712:	5b                   	pop    %ebx
 713:	5d                   	pop    %ebp
 714:	c3                   	ret    
 715:	8d 76 00             	lea    0x0(%esi),%esi
        base.s.size = 0;
    }
    for(p = prevp->s.ptr; ; prevp = p, p = p->s.ptr){
        if(p->s.size >= nunits){
            if(p->s.size == nunits)
                prevp->s.ptr = p->s.ptr;
 718:	8b 0a                	mov    (%edx),%ecx
 71a:	89 08                	mov    %ecx,(%eax)
 71c:	eb e9                	jmp    707 <malloc+0x57>
    Header *p, *prevp;
    uint nunits;

    nunits = (nbytes + sizeof(Header) - 1)/sizeof(Header) + 1;
    if((prevp = freep) == 0){
        base.s.ptr = freep = prevp = &base;
 71e:	c7 05 a8 0b 00 00 ac 	movl   $0xbac,0xba8
 725:	0b 00 00 
 728:	c7 05 ac 0b 00 00 ac 	movl   $0xbac,0xbac
 72f:	0b 00 00 
        base.s.size = 0;
 732:	ba ac 0b 00 00       	mov    $0xbac,%edx
 737:	c7 05 b0 0b 00 00 00 	movl   $0x0,0xbb0
 73e:	00 00 00 
 741:	eb 96                	jmp    6d9 <malloc+0x29>
 743:	8d b6 00 00 00 00    	lea    0x0(%esi),%esi
 749:	8d bc 27 00 00 00 00 	lea    0x0(%edi,%eiz,1),%edi

00000750 <pmalloc>:

// TODO we are not sure where we should do the page protected and read only PTE_W...

void*
pmalloc()
{
 750:	55                   	push   %ebp
 751:	89 e5                	mov    %esp,%ebp
 753:	83 ec 08             	sub    $0x8,%esp
    Header *p, *prevp;
    uint nunits;

    nunits = ( 4096 + sizeof(Header) - 1)/sizeof(Header) + 1;
    if((prevp = freep) == 0){
 756:	a1 a8 0b 00 00       	mov    0xba8,%eax
 75b:	85 c0                	test   %eax,%eax
 75d:	74 46                	je     7a5 <pmalloc+0x55>
 75f:	90                   	nop
        base.s.ptr = freep = prevp = &base;
        base.s.size = 0;
    }
    for(p = prevp->s.ptr; ; prevp = p, p = p->s.ptr){
 760:	8b 10                	mov    (%eax),%edx
        if(p->s.size == nunits){
 762:	81 7a 04 01 02 00 00 	cmpl   $0x201,0x4(%edx)
 769:	74 25                	je     790 <pmalloc+0x40>
            freep = prevp;
            (p+1)->x = 1;
            return (void*)(p + 1);
        }

        if(p == freep)
 76b:	39 15 a8 0b 00 00    	cmp    %edx,0xba8
 771:	89 d0                	mov    %edx,%eax
 773:	75 eb                	jne    760 <pmalloc+0x10>
            if((p = morecore(nunits)) == 0)
 775:	b8 01 02 00 00       	mov    $0x201,%eax
 77a:	e8 d1 fe ff ff       	call   650 <morecore>
 77f:	85 c0                	test   %eax,%eax
 781:	75 dd                	jne    760 <pmalloc+0x10>
                return 0;
 783:	31 c0                	xor    %eax,%eax
    }
}
 785:	c9                   	leave  
 786:	c3                   	ret    
 787:	89 f6                	mov    %esi,%esi
 789:	8d bc 27 00 00 00 00 	lea    0x0(%edi,%eiz,1),%edi
        base.s.ptr = freep = prevp = &base;
        base.s.size = 0;
    }
    for(p = prevp->s.ptr; ; prevp = p, p = p->s.ptr){
        if(p->s.size == nunits){
            prevp->s.ptr = p->s.ptr;
 790:	8b 0a                	mov    (%edx),%ecx
            freep = prevp;
 792:	a3 a8 0b 00 00       	mov    %eax,0xba8
        base.s.ptr = freep = prevp = &base;
        base.s.size = 0;
    }
    for(p = prevp->s.ptr; ; prevp = p, p = p->s.ptr){
        if(p->s.size == nunits){
            prevp->s.ptr = p->s.ptr;
 797:	89 08                	mov    %ecx,(%eax)
            freep = prevp;
            (p+1)->x = 1;
 799:	c7 42 08 01 00 00 00 	movl   $0x1,0x8(%edx)
            return (void*)(p + 1);
 7a0:	8d 42 08             	lea    0x8(%edx),%eax

        if(p == freep)
            if((p = morecore(nunits)) == 0)
                return 0;
    }
}
 7a3:	c9                   	leave  
 7a4:	c3                   	ret    
    Header *p, *prevp;
    uint nunits;

    nunits = ( 4096 + sizeof(Header) - 1)/sizeof(Header) + 1;
    if((prevp = freep) == 0){
        base.s.ptr = freep = prevp = &base;
 7a5:	c7 05 a8 0b 00 00 ac 	movl   $0xbac,0xba8
 7ac:	0b 00 00 
 7af:	c7 05 ac 0b 00 00 ac 	movl   $0xbac,0xbac
 7b6:	0b 00 00 
        base.s.size = 0;
 7b9:	ba ac 0b 00 00       	mov    $0xbac,%edx
 7be:	c7 05 b0 0b 00 00 00 	movl   $0x0,0xbb0
 7c5:	00 00 00 
 7c8:	eb a1                	jmp    76b <pmalloc+0x1b>
 7ca:	8d b6 00 00 00 00    	lea    0x0(%esi),%esi

000007d0 <protect_page>:
    }
}


int protect_page(void* ap)
{
 7d0:	55                   	push   %ebp
 7d1:	89 e5                	mov    %esp,%ebp
 7d3:	8b 45 08             	mov    0x8(%ebp),%eax
    Header *p;
    if( ap )
 7d6:	85 c0                	test   %eax,%eax
 7d8:	74 1e                	je     7f8 <protect_page+0x28>
    {
        if( (uint)ap % 4096 != 0 )
 7da:	a9 ff 0f 00 00       	test   $0xfff,%eax
 7df:	75 17                	jne    7f8 <protect_page+0x28>
            return -1;

        p = ap;
        if( !p->pmalloced )
 7e1:	8b 10                	mov    (%eax),%edx
 7e3:	85 d2                	test   %edx,%edx
 7e5:	74 11                	je     7f8 <protect_page+0x28>
            return -1;

        p->protected = 1;
 7e7:	c7 00 01 00 00 00    	movl   $0x1,(%eax)
        return 1;
 7ed:	b8 01 00 00 00       	mov    $0x1,%eax
    }
    else
        return -1;
}
 7f2:	5d                   	pop    %ebp
 7f3:	c3                   	ret    
 7f4:	8d 74 26 00          	lea    0x0(%esi,%eiz,1),%esi

        p->protected = 1;
        return 1;
    }
    else
        return -1;
 7f8:	b8 ff ff ff ff       	mov    $0xffffffff,%eax
}
 7fd:	5d                   	pop    %ebp
 7fe:	c3                   	ret    
 7ff:	90                   	nop

00000800 <pfree>:



int pfree(void* ap) {
 800:	55                   	push   %ebp
 801:	89 e5                	mov    %esp,%ebp
 803:	8b 45 08             	mov    0x8(%ebp),%eax
    Header *p;
    if (ap) {
 806:	85 c0                	test   %eax,%eax
 808:	74 1e                	je     828 <pfree+0x28>
        if ((uint) ap % 4096 != 0)
 80a:	a9 ff 0f 00 00       	test   $0xfff,%eax
 80f:	75 17                	jne    828 <pfree+0x28>
            return -1;

        p = ap;
        if (p->protected) {
 811:	8b 10                	mov    (%eax),%edx
 813:	85 d2                	test   %edx,%edx
 815:	74 11                	je     828 <pfree+0x28>
            free(ap);
 817:	50                   	push   %eax
 818:	e8 a3 fd ff ff       	call   5c0 <free>
            return 1;
 81d:	58                   	pop    %eax
 81e:	b8 01 00 00 00       	mov    $0x1,%eax
        }
    }
    return -1;
}
 823:	c9                   	leave  
 824:	c3                   	ret    
 825:	8d 76 00             	lea    0x0(%esi),%esi
        if (p->protected) {
            free(ap);
            return 1;
        }
    }
    return -1;
 828:	b8 ff ff ff ff       	mov    $0xffffffff,%eax
}
 82d:	c9                   	leave  
 82e:	c3                   	ret    
